Certificate:
    Data:
        Version: 3 (0x2)
        Serial Number: 1 (0x1)
        Signature Algorithm: sha1WithRSAEncryption
        Issuer: C=BA, ST=RS, L=Banja Luka, O=Elektrotehnicki fakultet, OU=ETF, CN=CA milan/emailAddress=mica.ignjatic01@gmail.com
        Validity
            Not Before: Apr 12 16:07:23 2024 GMT
            Not After : Apr 12 16:07:23 2025 GMT
        Subject: C=BA, ST=RS, O=Elektrotehnicki fakultet, OU=ETF, CN=milan/emailAddress=milan@email.com
        Subject Public Key Info:
            Public Key Algorithm: rsaEncryption
                Public-Key: (2048 bit)
                Modulus:
                    00:bc:70:01:ad:e0:c8:b2:1e:ea:2a:ce:d9:fe:45:
                    e7:04:04:7e:5c:f9:f1:d1:f5:b0:ec:28:e6:e0:04:
                    c9:fa:c6:19:25:00:8e:c6:88:de:a6:42:5b:3d:9d:
                    c1:51:93:7c:63:8b:d9:0b:6b:69:36:72:97:94:e1:
                    96:af:0b:2d:14:14:36:99:15:80:44:a7:63:3e:78:
                    e9:ca:e1:d2:f8:d0:81:ce:1a:87:d6:ad:d8:39:f0:
                    a0:a5:30:06:40:23:45:06:cf:2c:83:96:99:cc:38:
                    83:75:c6:e5:84:d3:36:62:39:ca:e3:cb:97:4e:12:
                    75:17:ef:00:9e:9d:ff:10:05:6e:8b:5e:c3:78:d3:
                    d3:28:f4:14:5a:33:97:29:6b:eb:1a:5c:37:91:07:
                    3f:92:c5:b9:54:9c:56:a3:06:1d:b3:34:24:fd:f2:
                    a2:d4:7f:b1:3a:fc:f4:d1:a0:4c:eb:91:11:d5:75:
                    52:41:15:5b:cb:69:90:a5:1b:61:9b:35:8b:a6:3c:
                    ca:6b:b7:7c:f3:c1:aa:a0:f2:ca:50:6f:10:97:ed:
                    c6:9d:e0:9e:56:fa:78:6e:d9:6a:ff:80:c2:ca:74:
                    80:27:b4:c2:58:09:c5:58:92:a2:97:00:0d:a3:82:
                    fb:6a:88:ab:9d:2e:bc:7d:d7:c5:7e:65:c2:8b:e2:
                    69:7b
                Exponent: 65537 (0x10001)
        X509v3 extensions:
            X509v3 Basic Constraints: 
                CA:FALSE
            X509v3 Key Usage: 
                Digital Signature, Non Repudiation
            X509v3 Extended Key Usage: 
                TLS Web Client Authentication, TLS Web Server Authentication
            Netscape Comment: 
                OpenSSL Generated Certificate
            X509v3 Subject Key Identifier: 
                24:46:2C:CD:49:20:2B:1B:D1:B9:95:5E:E3:12:97:2F:22:F3:1A:67
            X509v3 Authority Key Identifier: 
                FA:9C:F3:9B:5A:C1:C8:7D:D4:27:38:6B:0C:FB:49:27:9E:66:64:CA
            X509v3 CRL Distribution Points: 
                Full Name:
                  URI:http://192.168.21.89/rootcrl.pem
    Signature Algorithm: sha1WithRSAEncryption
    Signature Value:
        2f:09:d3:ca:64:3c:17:a8:ce:67:3f:45:83:d4:db:17:1d:11:
        39:a0:eb:66:65:30:cd:5a:b3:c4:91:7e:6d:72:59:a6:f4:6e:
        b5:05:99:a2:62:e8:c1:91:68:17:54:8d:fe:ad:4a:0f:be:ea:
        70:6b:2e:23:f5:f5:15:19:2c:90:d7:27:95:09:b0:cf:45:93:
        c2:f7:f3:1e:6b:7d:ae:44:bf:c3:1a:28:91:2b:25:e3:7e:ab:
        92:a9:71:e8:c7:69:0c:35:8f:17:5d:c3:fd:05:e7:e5:ed:c3:
        13:0c:85:9a:ad:16:00:49:bb:dc:6d:44:97:62:0a:f8:6b:1f:
        95:2d:8a:f4:50:61:9d:62:ba:45:e0:30:54:db:2a:81:15:b7:
        a6:63:47:1d:c3:5a:dd:4a:34:f9:f5:33:d3:f2:7d:55:10:d8:
        63:69:0e:b1:1a:47:40:e1:5a:e9:86:57:d9:04:a3:bc:6e:79:
        b8:27:3a:ae:09:bc:dd:57:2e:26:bc:a5:23:a8:63:81:88:df:
        b0:fc:de:85:56:87:ea:b1:a1:ab:86:96:25:ad:eb:73:d7:9e:
        21:c0:ca:c7:e8:ad:d7:da:5e:dd:cb:f6:78:0b:1c:de:37:be:
        cd:50:a8:fb:c5:d5:fb:a4:38:ef:10:72:8e:a2:fa:51:27:8a:
        db:8e:30:4c
-----BEGIN CERTIFICATE-----
MIIEcDCCA1igAwIBAgIBATANBgkqhkiG9w0BAQUFADCBnTELMAkGA1UEBhMCQkEx
CzAJBgNVBAgTAlJTMRMwEQYDVQQHEwpCYW5qYSBMdWthMSEwHwYDVQQKExhFbGVr
dHJvdGVobmlja2kgZmFrdWx0ZXQxDDAKBgNVBAsTA0VURjERMA8GA1UEAxMIQ0Eg
bWlsYW4xKDAmBgkqhkiG9w0BCQEWGW1pY2EuaWduamF0aWMwMUBnbWFpbC5jb20w
HhcNMjQwNDEyMTYwNzIzWhcNMjUwNDEyMTYwNzIzWjB7MQswCQYDVQQGEwJCQTEL
MAkGA1UECBMCUlMxITAfBgNVBAoTGEVsZWt0cm90ZWhuaWNraSBmYWt1bHRldDEM
MAoGA1UECxMDRVRGMQ4wDAYDVQQDEwVtaWxhbjEeMBwGCSqGSIb3DQEJARYPbWls
YW5AZW1haWwuY29tMIIBIjANBgkqhkiG9w0BAQEFAAOCAQ8AMIIBCgKCAQEAvHAB
reDIsh7qKs7Z/kXnBAR+XPnx0fWw7Cjm4ATJ+sYZJQCOxojepkJbPZ3BUZN8Y4vZ
C2tpNnKXlOGWrwstFBQ2mRWARKdjPnjpyuHS+NCBzhqH1q3YOfCgpTAGQCNFBs8s
g5aZzDiDdcblhNM2YjnK48uXThJ1F+8Anp3/EAVui17DeNPTKPQUWjOXKWvrGlw3
kQc/ksW5VJxWowYdszQk/fKi1H+xOvz00aBM65ER1XVSQRVby2mQpRthmzWLpjzK
a7d888GqoPLKUG8Ql+3GneCeVvp4btlq/4DCynSAJ7TCWAnFWJKilwANo4L7aoir
nS68fdfFfmXCi+JpewIDAQABo4HbMIHYMAkGA1UdEwQCMAAwCwYDVR0PBAQDAgbA
MB0GA1UdJQQWMBQGCCsGAQUFBwMCBggrBgEFBQcDATAsBglghkgBhvhCAQ0EHxYd
T3BlblNTTCBHZW5lcmF0ZWQgQ2VydGlmaWNhdGUwHQYDVR0OBBYEFCRGLM1JICsb
0bmVXuMSly8i8xpnMB8GA1UdIwQYMBaAFPqc85tawch91Cc4awz7SSeeZmTKMDEG
A1UdHwQqMCgwJqAkoCKGIGh0dHA6Ly8xOTIuMTY4LjIxLjg5L3Jvb3RjcmwucGVt
MA0GCSqGSIb3DQEBBQUAA4IBAQAvCdPKZDwXqM5nP0WD1NsXHRE5oOtmZTDNWrPE
kX5tclmm9G61BZmiYujBkWgXVI3+rUoPvupway4j9fUVGSyQ1yeVCbDPRZPC9/Me
a32uRL/DGiiRKyXjfquSqXHox2kMNY8XXcP9Befl7cMTDIWarRYASbvcbUSXYgr4
ax+VLYr0UGGdYrpF4DBU2yqBFbemY0cdw1rdSjT59TPT8n1VENhjaQ6xGkdA4Vrp
hlfZBKO8bnm4JzquCbzdVy4mvKUjqGOBiN+w/N6FVofqsaGrhpYlretz154hwMrH
6K3X2l7dy/Z4CxzeN77NUKj7xdX7pDjvEHKOovpRJ4rbjjBM
-----END CERTIFICATE-----
